; Function Attrs: nounwind uwtable
define internal void @_toggle_bottom_tool_accel_callback(ptr readnone captures(none) %0) #0 {
  %2 = load ptr, ptr getelementptr inbounds nuw (i8, ptr @darktable, i64 104), align 8, !tbaa !15
  %3 = load ptr, ptr %2, align 8, !tbaa !63
  %4 = tail call fastcc i32 @_panel_is_visible(i32 noundef 2)
  %.not = icmp eq i32 %4, 0
  %5 = zext i1 %.not to i32
  tail call void @dt_ui_panel_show(ptr noundef %3, i32 noundef 2, i32 noundef %5, i32 noundef 1)
  ret void
}